(dp1
S'layout'
p2
(ilayout
Layout
p3
(dp4
S'capsules'
p5
(lp6
(I6
I5
tp7
a(I25
I10
tp8
asS'numGhosts'
p9
I4
sS'food'
p10
(igame
Grid
p11
(dp12
S'CELLS_PER_INT'
p13
I30
sS'width'
p14
I32
sS'data'
p15
(lp16
(lp17
I00
aI00
aI00
aI00
aI00
aI00
aI00
aI00
aI00
aI00
aI00
aI00
aI00
aI00
aI00
aI00
aa(lp18
I00
aI00
aI00
aI00
aI00
aI00
aI00
aI00
aI00
aI00
aI00
aI00
aI00
aI00
aI00
aI00
aa(lp19
I00
aI00
aI00
aI00
aI00
aI00
aI00
aI00
aI00
aI00
aI00
aI00
aI00
aI00
aI00
aI00
aa(lp20
I00
aI01
aI01
aI00
aI00
aI00
aI00
aI00
aI01
aI00
aI00
aI00
aI00
aI00
aI00
aI00
aa(lp21
I00
aI00
aI00
aI00
aI00
aI00
aI00
aI00
aI00
aI00
aI00
aI00
aI00
aI00
aI00
aI00
aa(lp22
I00
aI01
aI00
aI00
aI00
aI00
aI00
aI00
aI00
aI00
aI00
aI00
aI01
aI00
aI01
aI00
aa(lp23
I00
aI00
aI00
aI00
aI00
aI00
aI00
aI00
aI00
aI00
aI00
aI00
aI00
aI00
aI00
aI00
aa(lp24
I00
aI00
aI00
aI01
aI00
aI00
aI00
aI00
aI01
aI01
aI00
aI00
aI00
aI00
aI00
aI00
aa(lp25
I00
aI00
aI00
aI01
aI00
aI00
aI00
aI00
aI00
aI01
aI00
aI00
aI00
aI00
aI01
aI00
aa(lp26
I00
aI00
aI00
aI00
aI00
aI01
aI00
aI00
aI00
aI00
aI00
aI01
aI00
aI00
aI00
aI00
aa(lp27
I00
aI00
aI00
aI01
aI00
aI00
aI00
aI01
aI00
aI01
aI00
aI01
aI00
aI00
aI01
aI00
aa(lp28
I00
aI00
aI00
aI00
aI00
aI00
aI00
aI00
aI00
aI00
aI00
aI00
aI00
aI00
aI00
aI00
aa(lp29
I00
aI00
aI00
aI00
aI00
aI00
aI00
aI00
aI00
aI00
aI00
aI00
aI00
aI00
aI00
aI00
aa(lp30
I00
aI00
aI00
aI00
aI00
aI00
aI00
aI00
aI00
aI00
aI00
aI00
aI00
aI00
aI00
aI00
aa(lp31
I00
aI00
aI00
aI00
aI00
aI00
aI00
aI00
aI00
aI01
aI00
aI00
aI00
aI00
aI00
aI00
aa(lp32
I00
aI00
aI00
aI00
aI00
aI00
aI00
aI00
aI00
aI00
aI00
aI00
aI00
aI00
aI00
aI00
aa(lp33
I00
aI00
aI00
aI00
aI00
aI00
aI00
aI00
aI00
aI00
aI00
aI00
aI00
aI00
aI00
aI00
aa(lp34
I00
aI00
aI00
aI00
aI00
aI00
aI01
aI00
aI00
aI00
aI00
aI00
aI00
aI00
aI00
aI00
aa(lp35
I00
aI00
aI00
aI00
aI00
aI00
aI00
aI00
aI00
aI00
aI00
aI00
aI00
aI00
aI00
aI00
aa(lp36
I00
aI00
aI00
aI00
aI00
aI00
aI00
aI00
aI00
aI00
aI00
aI00
aI00
aI00
aI00
aI00
aa(lp37
I00
aI00
aI00
aI00
aI00
aI00
aI00
aI00
aI00
aI00
aI00
aI00
aI00
aI00
aI00
aI00
aa(lp38
I00
aI01
aI00
aI00
aI01
aI00
aI01
aI00
aI01
aI00
aI00
aI00
aI01
aI00
aI00
aI00
aa(lp39
I00
aI00
aI00
aI00
aI01
aI00
aI00
aI00
aI00
aI00
aI01
aI00
aI00
aI00
aI00
aI00
aa(lp40
I00
aI01
aI00
aI00
aI00
aI00
aI01
aI00
aI00
aI00
aI00
aI00
aI01
aI00
aI00
aI00
aa(lp41
I00
aI00
aI00
aI00
aI00
aI00
aI01
aI01
aI00
aI00
aI00
aI00
aI01
aI00
aI00
aI00
aa(lp42
I00
aI00
aI00
aI00
aI00
aI00
aI00
aI00
aI00
aI00
aI00
aI00
aI00
aI00
aI00
aI00
aa(lp43
I00
aI01
aI00
aI01
aI00
aI00
aI00
aI00
aI00
aI00
aI00
aI00
aI00
aI00
aI01
aI00
aa(lp44
I00
aI00
aI00
aI00
aI00
aI00
aI00
aI00
aI00
aI00
aI00
aI00
aI00
aI00
aI00
aI00
aa(lp45
I00
aI00
aI00
aI00
aI00
aI00
aI00
aI01
aI00
aI00
aI00
aI00
aI00
aI01
aI01
aI00
aa(lp46
I00
aI00
aI00
aI00
aI00
aI00
aI00
aI00
aI00
aI00
aI00
aI00
aI00
aI00
aI00
aI00
aa(lp47
I00
aI00
aI00
aI00
aI00
aI00
aI00
aI00
aI00
aI00
aI00
aI00
aI00
aI00
aI00
aI00
aa(lp48
I00
aI00
aI00
aI00
aI00
aI00
aI00
aI00
aI00
aI00
aI00
aI00
aI00
aI00
aI00
aI00
aasS'height'
p49
I16
sbsS'agentPositions'
p50
(lp51
(I00
(I1
I2
tp52
tp53
a(I00
(I30
I13
tp54
tp55
a(I00
(I1
I1
tp56
tp57
a(I00
(I30
I14
tp58
tp59
asg49
I16
sg14
I32
sS'walls'
p60
(igame
Grid
p61
(dp62
g13
I30
sg14
I32
sg15
(lp63
(lp64
I01
aI01
aI01
aI01
aI01
aI01
aI01
aI01
aI01
aI01
aI01
aI01
aI01
aI01
aI01
aI01
aa(lp65
I01
aI00
aI00
aI00
aI00
aI00
aI00
aI00
aI00
aI00
aI00
aI00
aI00
aI00
aI00
aI01
aa(lp66
I01
aI01
aI01
aI01
aI01
aI01
aI01
aI01
aI01
aI01
aI01
aI01
aI01
aI01
aI00
aI01
aa(lp67
I01
aI00
aI00
aI00
aI00
aI00
aI00
aI01
aI00
aI01
aI00
aI00
aI00
aI00
aI00
aI01
aa(lp68
I01
aI01
aI01
aI01
aI01
aI01
aI00
aI00
aI00
aI00
aI00
aI01
aI01
aI01
aI01
aI01
aa(lp69
I01
aI00
aI00
aI00
aI00
aI00
aI00
aI00
aI01
aI01
aI00
aI01
aI00
aI01
aI00
aI01
aa(lp70
I01
aI01
aI00
aI01
aI01
aI00
aI01
aI01
aI01
aI00
aI00
aI00
aI00
aI00
aI00
aI01
aa(lp71
I01
aI00
aI00
aI00
aI01
aI00
aI00
aI01
aI00
aI00
aI01
aI01
aI01
aI00
aI01
aI01
aa(lp72
I01
aI00
aI01
aI00
aI01
aI01
aI00
aI01
aI01
aI00
aI01
aI00
aI00
aI00
aI00
aI01
aa(lp73
I01
aI00
aI01
aI01
aI01
aI00
aI00
aI01
aI01
aI01
aI01
aI00
aI01
aI00
aI01
aI01
aa(lp74
I01
aI00
aI01
aI00
aI01
aI01
aI00
aI00
aI01
aI00
aI01
aI00
aI01
aI00
aI00
aI01
aa(lp75
I01
aI00
aI00
aI00
aI00
aI01
aI00
aI01
aI01
aI00
aI01
aI01
aI01
aI00
aI01
aI01
aa(lp76
I01
aI01
aI00
aI01
aI00
aI01
aI00
aI00
aI00
aI00
aI00
aI00
aI00
aI00
aI00
aI01
aa(lp77
I01
aI00
aI00
aI01
aI00
aI00
aI00
aI00
aI00
aI01
aI01
aI01
aI00
aI01
aI00
aI01
aa(lp78
I01
aI00
aI01
aI01
aI01
aI00
aI01
aI00
aI00
aI00
aI01
aI00
aI00
aI01
aI00
aI01
aa(lp79
I01
aI00
aI00
aI01
aI00
aI00
aI01
aI00
aI00
aI01
aI01
aI00
aI00
aI00
aI00
aI01
aa(lp80
I01
aI00
aI00
aI00
aI00
aI01
aI01
aI00
aI00
aI01
aI00
aI00
aI01
aI00
aI00
aI01
aa(lp81
I01
aI00
aI01
aI00
aI00
aI01
aI00
aI00
aI00
aI01
aI00
aI01
aI01
aI01
aI00
aI01
aa(lp82
I01
aI00
aI01
aI00
aI01
aI01
aI01
aI00
aI00
aI00
aI00
aI00
aI01
aI00
aI00
aI01
aa(lp83
I01
aI00
aI00
aI00
aI00
aI00
aI00
aI00
aI00
aI00
aI01
aI00
aI01
aI00
aI01
aI01
aa(lp84
I01
aI01
aI00
aI01
aI01
aI01
aI00
aI01
aI01
aI00
aI01
aI00
aI00
aI00
aI00
aI01
aa(lp85
I01
aI00
aI00
aI01
aI00
aI01
aI00
aI01
aI00
aI00
aI01
aI01
aI00
aI01
aI00
aI01
aa(lp86
I01
aI01
aI00
aI01
aI00
aI01
aI01
aI01
aI01
aI00
aI00
aI01
aI01
aI01
aI00
aI01
aa(lp87
I01
aI00
aI00
aI00
aI00
aI01
aI00
aI01
aI01
aI00
aI01
aI01
aI00
aI01
aI00
aI01
aa(lp88
I01
aI01
aI00
aI01
aI01
aI01
aI00
aI00
aI01
aI00
aI00
aI01
aI00
aI00
aI00
aI01
aa(lp89
I01
aI00
aI00
aI00
aI00
aI00
aI00
aI01
aI01
aI01
aI00
aI01
aI01
aI00
aI01
aI01
aa(lp90
I01
aI00
aI01
aI00
aI01
aI00
aI01
aI01
aI00
aI00
aI00
aI00
aI00
aI00
aI00
aI01
aa(lp91
I01
aI01
aI01
aI01
aI01
aI00
aI00
aI00
aI00
aI00
aI01
aI01
aI01
aI01
aI01
aI01
aa(lp92
I01
aI00
aI00
aI00
aI00
aI00
aI01
aI00
aI01
aI00
aI00
aI00
aI00
aI00
aI00
aI01
aa(lp93
I01
aI00
aI01
aI01
aI01
aI01
aI01
aI01
aI01
aI01
aI01
aI01
aI01
aI01
aI01
aI01
aa(lp94
I01
aI00
aI00
aI00
aI00
aI00
aI00
aI00
aI00
aI00
aI00
aI00
aI00
aI00
aI00
aI01
aa(lp95
I01
aI01
aI01
aI01
aI01
aI01
aI01
aI01
aI01
aI01
aI01
aI01
aI01
aI01
aI01
aI01
aasg49
I16
sbsS'totalFood'
p96
I40
sS'layoutText'
p97
(lp98
S'%%%%%%%%%%%%%%%%%%%%%%%%%%%%%%%%'
p99
aS'%   %. %.%.%       %     %.%.%4%'
p100
aS'% % %%       %%  %   %%%   %.%2%'
p101
aS'% % %. % %%%    %%%% .%..% % % %'
p102
aS'% % %% % ..% %   %   %%%%% % % %'
p103
aS'% %    %%%%% %%%   %%%.% o % % %'
p104
aS'% %% % ..%.  %.%%%       %   % %'
p105
aS'% %. %%.%%%%        %.%%%%  %% %'
p106
aS'% %%  %%%%.%        %%%%.%% .% %'
p107
aS'% %   %       %%%.%  .%.. % %% %'
p108
aS'% % % o %.%%%   %%% %%%%%    % %'
p109
aS'% % % %%%%%   %   % %.. % %% % %'
p110
aS'% % % %..%. %%%%    %%% % .% % %'
p111
aS'%1%.%   %%%   %  %%       %% % %'
p112
aS'%3%.%.%     %       %.%.% .%   %'
p113
aS'%%%%%%%%%%%%%%%%%%%%%%%%%%%%%%%%'
p114
asbsS'blueTeamName'
p115
S'Blue'
p116
sS'actions'
p117
(lp118
(I0
S'North'
p119
tp120
a(I1
S'South'
p121
tp122
a(I2
g119
tp123
a(I3
g121
tp124
a(I0
g119
tp125
a(I1
g121
tp126
a(I2
g119
tp127
a(I3
g121
tp128
a(I0
g119
tp129
a(I1
g121
tp130
a(I2
g119
tp131
a(I3
g121
tp132
a(I0
g119
tp133
a(I1
g121
tp134
a(I2
g119
tp135
a(I3
g121
tp136
a(I0
g119
tp137
a(I1
g121
tp138
a(I2
g119
tp139
a(I3
g121
tp140
a(I0
g119
tp141
a(I1
g121
tp142
a(I2
g119
tp143
a(I3
g121
tp144
a(I0
g119
tp145
a(I1
g121
tp146
a(I2
g119
tp147
a(I3
g121
tp148
a(I0
g119
tp149
a(I1
g121
tp150
a(I2
g119
tp151
a(I3
g121
tp152
a(I0
g119
tp153
a(I1
g121
tp154
a(I2
g119
tp155
a(I3
g121
tp156
a(I0
g119
tp157
a(I1
g121
tp158
a(I2
g119
tp159
a(I3
g121
tp160
a(I0
g119
tp161
a(I1
g121
tp162
a(I2
g119
tp163
a(I3
g121
tp164
a(I0
g119
tp165
a(I1
g121
tp166
a(I2
g119
tp167
a(I3
g121
tp168
a(I0
S'East'
p169
tp170
a(I1
S'West'
p171
tp172
a(I2
g119
tp173
a(I3
g121
tp174
a(I0
g169
tp175
a(I1
g171
tp176
a(I2
g169
tp177
a(I3
g171
tp178
a(I0
g121
tp179
a(I1
g119
tp180
a(I2
g169
tp181
a(I3
g171
tp182
a(I0
g121
tp183
a(I1
g119
tp184
a(I2
g121
tp185
a(I3
g119
tp186
a(I0
g121
tp187
a(I1
g119
tp188
a(I2
g121
tp189
a(I3
g119
tp190
a(I0
g121
tp191
a(I1
g119
tp192
a(I2
g121
tp193
a(I3
g119
tp194
a(I0
g169
tp195
a(I1
g171
tp196
a(I2
g121
tp197
a(I3
g119
tp198
a(I0
g121
tp199
a(I1
g119
tp200
a(I2
g169
tp201
a(I3
g171
tp202
a(I0
g121
tp203
a(I1
g119
tp204
a(I2
g121
tp205
a(I3
g171
tp206
a(I0
g171
tp207
a(I1
g119
tp208
a(I2
g121
tp209
a(I3
g171
tp210
a(I0
S'Stop'
p211
tp212
a(I1
g119
tp213
a(I2
g121
tp214
a(I3
g119
tp215
a(I0
g211
tp216
a(I1
g171
tp217
a(I2
g169
tp218
a(I3
g171
tp219
a(I0
g211
tp220
a(I1
g119
tp221
a(I2
g121
tp222
a(I3
g171
tp223
a(I0
g211
tp224
a(I1
g171
tp225
a(I2
g121
tp226
a(I3
g169
tp227
a(I0
g211
tp228
a(I1
g171
tp229
a(I2
g169
tp230
a(I3
g119
tp231
a(I0
g211
tp232
a(I1
g121
tp233
a(I2
g169
tp234
a(I3
g121
tp235
a(I0
g211
tp236
a(I1
g171
tp237
a(I2
g119
tp238
a(I3
g169
tp239
a(I0
g211
tp240
a(I1
g171
tp241
a(I2
g169
tp242
a(I3
g121
tp243
a(I0
g211
tp244
a(I1
g171
tp245
a(I2
g169
tp246
a(I3
g169
tp247
a(I0
g211
tp248
a(I1
g171
tp249
a(I2
g169
tp250
a(I3
g169
tp251
a(I0
g211
tp252
a(I1
g171
tp253
a(I2
g169
tp254
a(I3
g119
tp255
a(I0
g211
tp256
a(I1
g171
tp257
a(I2
g169
tp258
a(I3
g119
tp259
a(I0
g211
tp260
a(I1
g121
tp261
a(I2
g169
tp262
a(I3
g119
tp263
a(I0
g211
tp264
a(I1
g171
tp265
a(I2
g119
tp266
a(I3
g119
tp267
a(I0
g211
tp268
a(I1
g171
tp269
a(I2
g169
tp270
a(I3
g169
tp271
a(I0
g211
tp272
a(I1
g171
tp273
a(I2
g169
tp274
a(I3
g119
tp275
a(I0
g169
tp276
a(I1
g171
tp277
a(I2
g169
tp278
a(I3
g121
tp279
a(I0
g121
tp280
a(I1
g119
tp281
a(I2
g169
tp282
a(I3
g171
tp283
a(I0
g169
tp284
a(I1
g121
tp285
a(I2
g211
tp286
a(I3
g171
tp287
a(I0
g121
tp288
a(I1
g171
tp289
a(I2
g211
tp290
a(I3
g119
tp291
a(I0
g121
tp292
a(I1
g171
tp293
a(I2
g211
tp294
a(I3
g171
tp295
a(I0
g121
tp296
a(I1
g119
tp297
a(I2
g211
tp298
a(I3
g171
tp299
a(I0
g121
tp300
a(I1
g171
tp301
a(I2
g211
tp302
a(I3
g121
tp303
a(I0
g121
tp304
a(I1
g171
tp305
a(I2
g211
tp306
a(I3
g171
tp307
a(I0
g121
tp308
a(I1
g169
tp309
a(I2
g211
tp310
a(I3
g171
tp311
a(I0
g211
tp312
a(I1
g169
tp313
a(I2
g211
tp314
a(I3
g171
tp315
a(I0
g211
tp316
a(I1
g121
tp317
a(I2
g211
tp318
a(I3
g171
tp319
a(I0
g211
tp320
a(I1
g121
tp321
a(I2
g211
tp322
a(I3
g171
tp323
a(I0
g119
tp324
a(I1
g121
tp325
a(I2
g211
tp326
a(I3
g121
tp327
a(I0
g121
tp328
a(I1
g171
tp329
a(I2
g211
tp330
a(I3
g171
tp331
a(I0
g211
tp332
a(I1
g171
tp333
a(I2
g211
tp334
a(I3
g171
tp335
a(I0
g211
tp336
a(I1
g119
tp337
a(I2
g211
tp338
a(I3
g121
tp339
a(I0
g211
tp340
a(I1
g121
tp341
a(I2
g119
tp342
a(I3
g171
tp343
a(I0
g211
tp344
a(I1
g171
tp345
a(I2
g119
tp346
a(I3
g119
tp347
a(I0
g211
tp348
a(I1
g121
tp349
a(I2
g119
tp350
a(I3
g169
tp351
a(I0
g211
tp352
a(I1
g119
tp353
a(I2
g119
tp354
a(I3
g169
tp355
a(I0
g211
tp356
a(I1
g171
tp357
a(I2
g119
tp358
a(I3
g169
tp359
a(I0
g211
tp360
a(I1
g171
tp361
a(I2
g119
tp362
a(I3
g121
tp363
a(I0
g211
tp364
a(I1
g121
tp365
a(I2
g119
tp366
a(I3
g171
tp367
a(I0
g211
tp368
a(I1
g171
tp369
a(I2
g119
tp370
a(I3
g171
tp371
a(I0
g119
tp372
a(I1
g171
tp373
a(I2
g119
tp374
a(I3
g121
tp375
a(I0
g119
tp376
a(I1
g121
tp377
a(I2
g119
tp378
a(I3
g119
tp379
a(I0
g211
tp380
a(I1
g121
tp381
a(I2
g119
tp382
a(I3
g119
tp383
a(I0
g119
tp384
a(I1
g121
tp385
a(I2
g119
tp386
a(I3
g171
tp387
a(I0
g119
tp388
a(I1
g121
tp389
a(I2
g119
tp390
a(I3
g121
tp391
a(I0
g119
tp392
a(I1
g119
tp393
a(I2
g169
tp394
a(I3
g169
tp395
a(I0
g119
tp396
a(I1
g169
tp397
a(I2
g169
tp398
a(I3
g119
tp399
a(I0
g119
tp400
a(I1
g169
tp401
a(I2
g121
tp402
a(I3
g171
tp403
a(I0
g119
tp404
a(I1
g119
tp405
a(I2
g121
tp406
a(I3
g121
tp407
a(I0
g119
tp408
a(I1
g169
tp409
a(I2
g121
tp410
a(I3
g169
tp411
a(I0
g119
tp412
a(I1
g171
tp413
a(I2
g121
tp414
a(I3
g119
tp415
a(I0
g119
tp416
a(I1
g121
tp417
a(I2
g169
tp418
a(I3
g171
tp419
a(I0
g119
tp420
a(I1
g121
tp421
a(I2
g121
tp422
a(I3
g121
tp423
a(I0
g119
tp424
a(I1
g169
tp425
a(I2
g121
tp426
a(I3
g169
tp427
a(I0
g119
tp428
a(I1
g169
tp429
a(I2
g121
tp430
a(I3
g169
tp431
a(I0
g169
tp432
a(I1
g169
tp433
a(I2
g121
tp434
a(I3
g169
tp435
a(I0
g169
tp436
a(I1
g169
tp437
a(I2
g169
tp438
a(I3
g121
tp439
a(I0
g121
tp440
a(I1
g119
tp441
a(I2
g121
tp442
a(I3
g169
tp443
a(I0
g121
tp444
a(I1
g119
tp445
a(I2
g169
tp446
a(I3
g169
tp447
a(I0
g121
tp448
a(I1
g171
tp449
a(I2
g169
tp450
a(I3
g171
tp451
a(I0
g121
tp452
a(I1
g169
tp453
a(I2
g119
tp454
a(I3
g171
tp455
a(I0
g169
tp456
a(I1
g119
tp457
a(I2
g169
tp458
a(I3
g119
tp459
a(I0
g121
tp460
a(I1
g169
tp461
a(I2
g169
tp462
a(I3
g119
tp463
a(I0
g121
tp464
a(I1
g169
tp465
a(I2
g169
tp466
a(I3
g119
tp467
a(I0
g121
tp468
a(I1
g119
tp469
a(I2
g169
tp470
a(I3
g171
tp471
a(I0
g169
tp472
a(I1
g119
tp473
a(I2
g169
tp474
a(I3
g121
tp475
a(I0
g121
tp476
a(I1
g171
tp477
a(I2
g119
tp478
a(I3
g121
tp479
a(I0
g171
tp480
a(I1
g119
tp481
a(I2
g119
tp482
a(I3
g169
tp483
a(I0
g119
tp484
a(I1
g119
tp485
a(I2
g119
tp486
a(I3
g119
tp487
a(I0
g119
tp488
a(I1
g119
tp489
a(I2
g119
tp490
a(I3
g119
tp491
a(I0
g171
tp492
a(I1
g119
tp493
a(I2
g119
tp494
a(I3
g169
tp495
a(I0
g211
tp496
a(I1
g119
tp497
a(I2
g119
tp498
a(I3
g169
tp499
a(I0
g211
tp500
a(I1
g119
tp501
a(I2
g119
tp502
a(I3
g169
tp503
a(I0
g211
tp504
a(I1
g119
tp505
a(I2
g119
tp506
a(I3
g169
tp507
a(I0
g211
tp508
a(I1
g171
tp509
a(I2
g119
tp510
a(I3
g169
tp511
a(I0
g211
tp512
a(I1
g171
tp513
a(I2
g119
tp514
a(I3
g119
tp515
a(I0
g211
tp516
a(I1
g119
tp517
a(I2
g119
tp518
a(I3
g169
tp519
a(I0
g211
tp520
a(I1
g121
tp521
a(I2
g119
tp522
a(I3
g169
tp523
a(I0
g211
tp524
a(I1
g171
tp525
a(I2
g119
tp526
a(I3
g119
tp527
a(I0
g211
tp528
a(I1
g171
tp529
a(I2
g169
tp530
a(I3
g119
tp531
a(I0
g211
tp532
a(I1
g119
tp533
a(I2
g169
tp534
a(I3
g119
tp535
a(I0
g169
tp536
a(I1
g121
tp537
a(I2
g121
tp538
a(I3
g171
tp539
a(I0
g119
tp540
a(I1
g121
tp541
a(I2
g121
tp542
a(I3
g171
tp543
a(I0
g119
tp544
a(I1
g121
tp545
a(I2
g121
tp546
a(I3
g121
tp547
a(I0
g169
tp548
a(I1
g169
tp549
a(I2
g121
tp550
a(I3
g171
tp551
a(I0
g169
tp552
a(I1
g169
tp553
a(I2
g169
tp554
a(I3
g169
tp555
a(I0
g119
tp556
a(I1
g171
tp557
a(I2
g121
tp558
a(I3
g119
tp559
a(I0
g119
tp560
a(I1
g171
tp561
a(I2
g121
tp562
a(I3
g169
tp563
a(I0
g119
tp564
a(I1
g119
tp565
a(I2
g121
tp566
a(I3
g169
tp567
a(I0
g169
tp568
a(I1
g119
tp569
a(I2
g169
tp570
a(I3
g119
tp571
a(I0
g169
tp572
a(I1
g121
tp573
a(I2
g121
tp574
a(I3
g121
tp575
a(I0
g119
tp576
a(I1
g121
tp577
a(I2
g121
tp578
a(I3
g121
tp579
a(I0
g211
tp580
a(I1
g121
tp581
a(I2
g169
tp582
a(I3
g121
tp583
a(I0
g211
tp584
a(I1
g121
tp585
a(I2
g169
tp586
a(I3
g121
tp587
a(I0
g211
tp588
a(I1
g121
tp589
a(I2
g119
tp590
a(I3
g121
tp591
a(I0
g211
tp592
a(I1
g121
tp593
a(I2
g169
tp594
a(I3
g121
tp595
a(I0
g211
tp596
a(I1
g121
tp597
a(I2
g169
tp598
a(I3
g169
tp599
a(I0
g211
tp600
a(I1
g121
tp601
a(I2
g169
tp602
a(I3
g119
tp603
a(I0
g211
tp604
a(I1
g121
tp605
a(I2
g169
tp606
a(I3
g171
tp607
a(I0
g211
tp608
a(I1
g121
tp609
a(I2
g169
tp610
a(I3
g119
tp611
a(I0
g211
tp612
a(I1
g121
tp613
a(I2
g169
tp614
a(I3
g119
tp615
a(I0
g211
tp616
a(I1
g121
tp617
a(I2
g119
tp618
a(I3
g119
tp619
a(I0
g211
tp620
a(I1
g171
tp621
a(I2
g169
tp622
a(I3
g119
tp623
a(I0
g211
tp624
a(I1
g171
tp625
a(I2
g169
tp626
a(I3
g171
tp627
a(I0
g211
tp628
a(I1
g119
tp629
a(I2
g169
tp630
a(I3
g171
tp631
a(I0
g211
tp632
a(I1
g119
tp633
a(I2
g169
tp634
a(I3
g121
tp635
a(I0
g211
tp636
a(I1
g119
tp637
a(I2
g211
tp638
a(I3
g171
tp639
a(I0
g211
tp640
a(I1
g119
tp641
a(I2
g211
tp642
a(I3
g169
tp643
a(I0
g211
tp644
a(I1
g171
tp645
a(I2
g211
tp646
a(I3
g119
tp647
a(I0
g211
tp648
a(I1
g119
tp649
a(I2
g211
tp650
a(I3
g169
tp651
a(I0
g211
tp652
a(I1
g119
tp653
a(I2
g211
tp654
a(I3
g169
tp655
a(I0
g211
tp656
a(I1
g119
tp657
a(I2
g211
tp658
a(I3
g119
tp659
a(I0
g211
tp660
a(I1
g171
tp661
a(I2
g211
tp662
a(I3
g121
tp663
a(I0
g211
tp664
a(I1
g119
tp665
a(I2
g211
tp666
a(I3
g121
tp667
a(I0
g211
tp668
a(I1
g119
tp669
a(I2
g211
tp670
a(I3
g121
tp671
a(I0
g211
tp672
a(I1
g171
tp673
a(I2
g211
tp674
a(I3
g121
tp675
a(I0
g211
tp676
a(I1
g171
tp677
a(I2
g211
tp678
a(I3
g171
tp679
a(I0
g211
tp680
a(I1
g121
tp681
a(I2
g211
tp682
a(I3
g171
tp683
a(I0
g211
tp684
a(I1
g171
tp685
a(I2
g211
tp686
a(I3
g121
tp687
a(I0
g211
tp688
a(I1
g171
tp689
a(I2
g211
tp690
a(I3
g171
tp691
a(I0
g211
tp692
a(I1
g171
tp693
a(I2
g211
tp694
a(I3
g171
tp695
a(I0
g211
tp696
a(I1
g171
tp697
a(I2
g211
tp698
a(I3
g171
tp699
a(I0
g211
tp700
a(I1
g171
tp701
a(I2
g211
tp702
a(I3
g171
tp703
a(I0
g211
tp704
a(I1
g171
tp705
a(I2
g211
tp706
a(I3
g171
tp707
a(I0
g211
tp708
a(I1
g119
tp709
a(I2
g211
tp710
a(I3
g171
tp711
a(I0
g211
tp712
a(I1
g171
tp713
a(I2
g211
tp714
a(I3
g121
tp715
a(I0
g211
tp716
a(I1
g171
tp717
a(I2
g211
tp718
a(I3
g121
tp719
a(I0
g211
tp720
a(I1
g119
tp721
a(I2
g211
tp722
a(I3
g171
tp723
a(I0
g211
tp724
a(I1
g171
tp725
a(I2
g119
tp726
a(I3
g119
tp727
a(I0
g211
tp728
a(I1
g171
tp729
a(I2
g119
tp730
a(I3
g169
tp731
a(I0
g211
tp732
a(I1
g119
tp733
a(I2
g119
tp734
a(I3
g119
tp735
a(I0
g211
tp736
a(I1
g171
tp737
a(I2
g119
tp738
a(I3
g119
tp739
a(I0
g211
tp740
a(I1
g171
tp741
a(I2
g119
tp742
a(I3
g119
tp743
a(I0
g211
tp744
a(I1
g119
tp745
a(I2
g119
tp746
a(I3
g169
tp747
a(I0
g121
tp748
a(I1
g171
tp749
a(I2
g119
tp750
a(I3
g169
tp751
a(I0
g169
tp752
a(I1
g171
tp753
a(I2
g119
tp754
a(I3
g119
tp755
a(I0
g169
tp756
a(I1
g121
tp757
a(I2
g119
tp758
a(I3
g119
tp759
a(I0
g119
tp760
a(I1
g121
tp761
a(I2
g119
tp762
a(I3
g171
tp763
a(I0
g211
tp764
a(I1
g121
tp765
a(I2
g119
tp766
a(I3
g171
tp767
a(I0
g211
tp768
a(I1
g121
tp769
a(I2
g119
tp770
a(I3
g119
tp771
a(I0
g211
tp772
a(I1
g121
tp773
a(I2
g119
tp774
a(I3
g171
tp775
a(I0
g211
tp776
a(I1
g121
tp777
a(I2
g169
tp778
a(I3
g171
tp779
a(I0
g211
tp780
a(I1
g121
tp781
a(I2
g169
tp782
a(I3
g121
tp783
a(I0
g211
tp784
a(I1
g121
tp785
a(I2
g121
tp786
a(I3
g119
tp787
a(I0
g211
tp788
a(I1
g121
tp789
a(I2
g121
tp790
a(I3
g169
tp791
a(I0
g211
tp792
a(I1
g121
tp793
a(I2
g121
tp794
a(I3
g169
tp795
a(I0
g211
tp796
a(I1
g121
tp797
a(I2
g121
tp798
a(I3
g121
tp799
a(I0
g211
tp800
a(I1
g121
tp801
a(I2
g169
tp802
a(I3
g169
tp803
a(I0
g211
tp804
a(I1
g171
tp805
a(I2
g121
tp806
a(I3
g169
tp807
a(I0
g211
tp808
a(I1
g171
tp809
a(I2
g121
tp810
a(I3
g121
tp811
a(I0
g211
tp812
a(I1
g119
tp813
a(I2
g121
tp814
a(I3
g121
tp815
a(I0
g211
tp816
a(I1
g119
tp817
a(I2
g169
tp818
a(I3
g171
tp819
a(I0
g211
tp820
a(I1
g119
tp821
a(I2
g121
tp822
a(I3
g171
tp823
a(I0
g211
tp824
a(I1
g119
tp825
a(I2
g121
tp826
a(I3
g121
tp827
a(I0
g211
tp828
a(I1
g171
tp829
a(I2
g169
tp830
a(I3
g121
tp831
a(I0
g211
tp832
a(I1
g119
tp833
a(I2
g169
tp834
a(I3
g121
tp835
a(I0
g211
tp836
a(I1
g119
tp837
a(I2
g119
tp838
a(I3
g171
tp839
a(I0
g211
tp840
a(I1
g119
tp841
a(I2
g169
tp842
a(I3
g171
tp843
a(I0
g211
tp844
a(I1
g171
tp845
a(I2
g169
tp846
a(I3
g121
tp847
a(I0
g211
tp848
a(I1
g119
tp849
a(I2
g169
tp850
a(I3
g169
tp851
a(I0
g211
tp852
a(I1
g119
tp853
a(I2
g169
tp854
a(I3
g119
tp855
a(I0
g211
tp856
a(I1
g171
tp857
a(I2
g169
tp858
a(I3
g171
tp859
a(I0
g211
tp860
a(I1
g171
tp861
a(I2
g169
tp862
a(I3
g121
tp863
a(I0
g211
tp864
a(I1
g121
tp865
a(I2
g119
tp866
a(I3
g169
tp867
a(I0
g211
tp868
a(I1
g171
tp869
a(I2
g169
tp870
a(I3
g121
tp871
a(I0
g211
tp872
a(I1
g171
tp873
a(I2
g169
tp874
a(I3
g119
tp875
a(I0
g211
tp876
a(I1
g171
tp877
a(I2
g169
tp878
a(I3
g171
tp879
a(I0
g211
tp880
a(I1
g171
tp881
a(I2
g119
tp882
a(I3
g119
tp883
a(I0
g211
tp884
a(I1
g171
tp885
a(I2
g119
tp886
a(I3
g169
tp887
a(I0
g211
tp888
a(I1
g171
tp889
a(I2
g119
tp890
a(I3
g169
tp891
a(I0
g211
tp892
a(I1
g119
tp893
a(I2
g119
tp894
a(I3
g169
tp895
a(I0
g211
tp896
a(I1
g171
tp897
a(I2
g119
tp898
a(I3
g119
tp899
a(I0
g211
tp900
a(I1
g171
tp901
a(I2
g119
tp902
a(I3
g171
tp903
a(I0
g211
tp904
a(I1
g119
tp905
a(I2
g119
tp906
a(I3
g121
tp907
a(I0
g211
tp908
a(I1
g171
tp909
a(I2
g119
tp910
a(I3
g121
tp911
a(I0
g211
tp912
a(I1
g171
tp913
a(I2
g119
tp914
a(I3
g169
tp915
a(I0
g211
tp916
a(I1
g119
tp917
a(I2
g119
tp918
a(I3
g121
tp919
a(I0
g211
tp920
a(I1
g171
tp921
a(I2
g119
tp922
a(I3
g169
tp923
a(I0
g121
tp924
a(I1
g171
tp925
a(I2
g119
tp926
a(I3
g169
tp927
a(I0
g169
tp928
a(I1
g119
tp929
a(I2
g119
tp930
a(I3
g171
tp931
a(I0
g169
tp932
a(I1
g121
tp933
a(I2
g169
tp934
a(I3
g171
tp935
a(I0
g171
tp936
a(I1
g121
tp937
a(I2
g169
tp938
a(I3
g119
tp939
a(I0
g171
tp940
a(I1
g121
tp941
a(I2
g121
tp942
a(I3
g171
tp943
a(I0
g119
tp944
a(I1
g121
tp945
a(I2
g121
tp946
a(I3
g171
tp947
a(I0
g211
tp948
a(I1
g121
tp949
a(I2
g121
tp950
a(I3
g121
tp951
a(I0
g211
tp952
a(I1
g121
tp953
a(I2
g121
tp954
a(I3
g119
tp955
a(I0
g211
tp956
a(I1
g121
tp957
a(I2
g169
tp958
a(I3
g119
tp959
a(I0
g211
tp960
a(I1
g121
tp961
a(I2
g121
tp962
a(I3
g171
tp963
a(I0
g211
tp964
a(I1
g121
tp965
a(I2
g121
tp966
a(I3
g121
tp967
a(I0
g211
tp968
a(I1
g121
tp969
a(I2
g121
tp970
a(I3
g169
tp971
a(I0
g211
tp972
a(I1
g121
tp973
a(I2
g169
tp974
a(I3
g169
tp975
a(I0
g211
tp976
a(I1
g121
tp977
a(I2
g121
tp978
a(I3
g119
tp979
a(I0
g211
tp980
a(I1
g171
tp981
a(I2
g121
tp982
a(I3
g119
tp983
a(I0
g211
tp984
a(I1
g171
tp985
a(I2
g169
tp986
a(I3
g119
tp987
a(I0
g211
tp988
a(I1
g119
tp989
a(I2
g169
tp990
a(I3
g119
tp991
a(I0
g211
tp992
a(I1
g119
tp993
a(I2
g119
tp994
a(I3
g169
tp995
a(I0
g211
tp996
a(I1
g119
tp997
a(I2
g169
tp998
a(I3
g169
tp999
a(I0
g211
tp1000
a(I1
g119
tp1001
a(I2
g169
tp1002
a(I3
g119
tp1003
a(I0
g211
tp1004
a(I1
g171
tp1005
a(I2
g169
tp1006
a(I3
g169
tp1007
a(I0
g211
tp1008
a(I1
g119
tp1009
a(I2
g169
tp1010
a(I3
g171
tp1011
a(I0
g211
tp1012
a(I1
g119
tp1013
a(I2
g169
tp1014
a(I3
g121
tp1015
a(I0
g211
tp1016
a(I1
g119
tp1017
a(I2
g169
tp1018
a(I3
g171
tp1019
a(I0
g211
tp1020
a(I1
g119
tp1021
a(I2
g119
tp1022
a(I3
g171
tp1023
a(I0
g211
tp1024
a(I1
g171
tp1025
a(I2
g169
tp1026
a(I3
g121
tp1027
a(I0
g211
tp1028
a(I1
g119
tp1029
a(I2
g169
tp1030
a(I3
g121
tp1031
a(I0
g211
tp1032
a(I1
g171
tp1033
a(I2
g169
tp1034
a(I3
g121
tp1035
a(I0
g211
tp1036
a(I1
g171
tp1037
a(I2
g169
tp1038
a(I3
g121
tp1039
a(I0
g211
tp1040
a(I1
g121
tp1041
a(I2
g211
tp1042
a(I3
g171
tp1043
a(I0
g211
tp1044
a(I1
g171
tp1045
a(I2
g119
tp1046
a(I3
g119
tp1047
a(I0
g211
tp1048
a(I1
g171
tp1049
a(I2
g119
tp1050
a(I3
g171
tp1051
a(I0
g211
tp1052
a(I1
g171
tp1053
a(I2
g119
tp1054
a(I3
g121
tp1055
a(I0
g211
tp1056
a(I1
g171
tp1057
a(I2
g119
tp1058
a(I3
g169
tp1059
a(I0
g211
tp1060
a(I1
g171
tp1061
a(I2
g119
tp1062
a(I3
g121
tp1063
a(I0
g211
tp1064
a(I1
g171
tp1065
a(I2
g119
tp1066
a(I3
g119
tp1067
a(I0
g211
tp1068
a(I1
g119
tp1069
a(I2
g119
tp1070
a(I3
g171
tp1071
a(I0
g211
tp1072
a(I1
g171
tp1073
a(I2
g119
tp1074
a(I3
g119
tp1075
a(I0
g211
tp1076
a(I1
g171
tp1077
a(I2
g119
tp1078
a(I3
g169
tp1079
a(I0
g211
tp1080
a(I1
g119
tp1081
a(I2
g119
tp1082
a(I3
g121
tp1083
a(I0
g211
tp1084
a(I1
g171
tp1085
a(I2
g119
tp1086
a(I3
g121
tp1087
a(I0
g211
tp1088
a(I1
g119
tp1089
a(I2
g119
tp1090
a(I3
g119
tp1091
a(I0
g211
tp1092
a(I1
g171
tp1093
a(I2
g119
tp1094
a(I3
g119
tp1095
a(I0
g211
tp1096
a(I1
g171
tp1097
a(I2
g169
tp1098
a(I3
g169
tp1099
a(I0
g121
tp1100
a(I1
g171
tp1101
a(I2
g169
tp1102
a(I3
g119
tp1103
a(I0
g169
tp1104
a(I1
g119
tp1105
a(I2
g121
tp1106
a(I3
g169
tp1107
a(I0
g169
tp1108
a(I1
g121
tp1109
a(I2
g121
tp1110
a(I3
g121
tp1111
a(I0
g171
tp1112
a(I1
g121
tp1113
a(I2
g121
tp1114
a(I3
g171
tp1115
a(I0
g171
tp1116
a(I1
g121
tp1117
a(I2
g121
tp1118
a(I3
g121
tp1119
a(I0
g171
tp1120
a(I1
g121
tp1121
a(I2
g169
tp1122
a(I3
g171
tp1123
a(I0
g211
tp1124
a(I1
g121
tp1125
a(I2
g121
tp1126
a(I3
g121
tp1127
a(I0
g211
tp1128
a(I1
g121
tp1129
a(I2
g121
tp1130
a(I3
g119
tp1131
a(I0
g211
tp1132
a(I1
g121
tp1133
a(I2
g121
tp1134
a(I3
g119
tp1135
a(I0
g211
tp1136
a(I1
g121
tp1137
a(I2
g121
tp1138
a(I3
g171
tp1139
a(I0
g211
tp1140
a(I1
g121
tp1141
a(I2
g169
tp1142
a(I3
g121
tp1143
a(I0
g211
tp1144
a(I1
g121
tp1145
a(I2
g121
tp1146
a(I3
g169
tp1147
a(I0
g211
tp1148
a(I1
g121
tp1149
a(I2
g169
tp1150
a(I3
g121
tp1151
a(I0
g211
tp1152
a(I1
g121
tp1153
a(I2
g169
tp1154
a(I3
g119
tp1155
a(I0
g211
tp1156
a(I1
g171
tp1157
a(I2
g119
tp1158
a(I3
g169
tp1159
a(I0
g211
tp1160
a(I1
g171
tp1161
a(I2
g169
tp1162
a(I3
g119
tp1163
a(I0
g211
tp1164
a(I1
g119
tp1165
a(I2
g169
tp1166
a(I3
g171
tp1167
a(I0
g211
tp1168
a(I1
g119
tp1169
a(I2
g169
tp1170
a(I3
g171
tp1171
a(I0
g211
tp1172
a(I1
g119
tp1173
a(I2
g169
tp1174
a(I3
g121
tp1175
a(I0
g211
tp1176
a(I1
g119
tp1177
a(I2
g169
tp1178
a(I3
g169
tp1179
a(I0
g211
tp1180
a(I1
g171
tp1181
a(I2
g169
tp1182
a(I3
g119
tp1183
a(I0
g211
tp1184
a(I1
g119
tp1185
a(I2
g119
tp1186
a(I3
g169
tp1187
a(I0
g211
tp1188
a(I1
g119
tp1189
a(I2
g169
tp1190
a(I3
g119
tp1191
a(I0
g211
tp1192
a(I1
g119
tp1193
a(I2
g169
tp1194
a(I3
g119
tp1195
a(I0
g211
tp1196
a(I1
g119
tp1197
a(I2
g169
tp1198
a(I3
g121
tp1199
a(I0
g211
tp1200
a(I1
g171
tp1201
a(I2
g169
tp1202
a(I3
g121
tp1203
a(I0
g211
tp1204
a(I1
g119
tp1205
a(I2
g211
tp1206
a(I3
g121
tp1207
a(I0
g211
tp1208
a(I1
g171
tp1209
a(I2
g211
tp1210
a(I3
g171
tp1211
a(I0
g211
tp1212
a(I1
g171
tp1213
a(I2
g119
tp1214
a(I3
g121
tp1215
a(I0
g211
tp1216
a(I1
g121
tp1217
a(I2
g119
tp1218
a(I3
g119
tp1219
a(I0
g211
tp1220
a(I1
g171
tp1221
a(I2
g119
tp1222
a(I3
g119
tp1223
a(I0
g211
tp1224
a(I1
g171
tp1225
a(I2
g119
tp1226
a(I3
g171
tp1227
a(I0
g211
tp1228
a(I1
g171
tp1229
a(I2
g119
tp1230
a(I3
g121
tp1231
a(I0
g211
tp1232
a(I1
g171
tp1233
a(I2
g119
tp1234
a(I3
g169
tp1235
a(I0
g211
tp1236
a(I1
g171
tp1237
a(I2
g119
tp1238
a(I3
g121
tp1239
a(I0
g211
tp1240
a(I1
g171
tp1241
a(I2
g119
tp1242
a(I3
g119
tp1243
a(I0
g211
tp1244
a(I1
g119
tp1245
a(I2
g119
tp1246
a(I3
g171
tp1247
a(I0
g211
tp1248
a(I1
g171
tp1249
a(I2
g119
tp1250
a(I3
g119
tp1251
a(I0
g211
tp1252
a(I1
g171
tp1253
a(I2
g119
tp1254
a(I3
g169
tp1255
a(I0
g211
tp1256
a(I1
g119
tp1257
a(I2
g119
tp1258
a(I3
g121
tp1259
a(I0
g211
tp1260
a(I1
g171
tp1261
a(I2
g119
tp1262
a(I3
g121
tp1263
a(I0
g211
tp1264
a(I1
g119
tp1265
a(I2
g169
tp1266
a(I3
g119
tp1267
a(I0
g211
tp1268
a(I1
g171
tp1269
a(I2
g169
tp1270
a(I3
g169
tp1271
a(I0
g211
tp1272
a(I1
g171
tp1273
a(I2
g121
tp1274
a(I3
g119
tp1275
a(I0
g169
tp1276
a(I1
g171
tp1277
a(I2
g121
tp1278
a(I3
g169
tp1279
a(I0
g169
tp1280
a(I1
g119
tp1281
a(I2
g121
tp1282
a(I3
g121
tp1283
a(I0
g169
tp1284
a(I1
g121
tp1285
a(I2
g121
tp1286
a(I3
g171
tp1287
a(I0
g171
tp1288
a(I1
g121
tp1289
a(I2
g169
tp1290
a(I3
g119
tp1291
a(I0
g171
tp1292
a(I1
g121
tp1293
a(I2
g121
tp1294
a(I3
g169
tp1295
a(I0
g119
tp1296
a(I1
g121
tp1297
a(I2
g121
tp1298
a(I3
g119
tp1299
a(I0
g211
tp1300
a(I1
g121
tp1301
a(I2
g121
tp1302
a(I3
g169
tp1303
a(I0
g211
tp1304
a(I1
g121
tp1305
a(I2
g169
tp1306
a(I3
g169
tp1307
a(I0
g211
tp1308
a(I1
g121
tp1309
a(I2
g121
tp1310
a(I3
g169
tp1311
a(I0
g211
tp1312
a(I1
g121
tp1313
a(I2
g121
tp1314
a(I3
g169
tp1315
a(I0
g211
tp1316
a(I1
g121
tp1317
a(I2
g169
tp1318
a(I3
g169
tp1319
a(I0
g211
tp1320
a(I1
g121
tp1321
a(I2
g169
tp1322
a(I3
g119
tp1323
asS'length'
p1324
I1200
sS'agents'
p1325
(lp1326
(igame
Agent
p1327
(dp1328
S'index'
p1329
I0
sba(igame
Agent
p1330
(dp1331
g1329
I0
sba(igame
Agent
p1332
(dp1333
g1329
I0
sba(igame
Agent
p1334
(dp1335
g1329
I0
sbasS'redTeamName'
p1336
S'Red'
p1337
s.