(dp1
S'layout'
p2
(ilayout
Layout
p3
(dp4
S'capsules'
p5
(lp6
(I6
I5
tp7
a(I25
I10
tp8
asS'numGhosts'
p9
I4
sS'food'
p10
(igame
Grid
p11
(dp12
S'CELLS_PER_INT'
p13
I30
sS'width'
p14
I32
sS'data'
p15
(lp16
(lp17
I00
aI00
aI00
aI00
aI00
aI00
aI00
aI00
aI00
aI00
aI00
aI00
aI00
aI00
aI00
aI00
aa(lp18
I00
aI00
aI00
aI00
aI00
aI00
aI00
aI00
aI00
aI00
aI00
aI00
aI00
aI00
aI00
aI00
aa(lp19
I00
aI00
aI00
aI00
aI00
aI00
aI00
aI00
aI00
aI00
aI00
aI00
aI00
aI00
aI00
aI00
aa(lp20
I00
aI01
aI01
aI00
aI00
aI00
aI00
aI00
aI01
aI00
aI00
aI00
aI00
aI00
aI00
aI00
aa(lp21
I00
aI00
aI00
aI00
aI00
aI00
aI00
aI00
aI00
aI00
aI00
aI00
aI00
aI00
aI00
aI00
aa(lp22
I00
aI01
aI00
aI00
aI00
aI00
aI00
aI00
aI00
aI00
aI00
aI00
aI01
aI00
aI01
aI00
aa(lp23
I00
aI00
aI00
aI00
aI00
aI00
aI00
aI00
aI00
aI00
aI00
aI00
aI00
aI00
aI00
aI00
aa(lp24
I00
aI00
aI00
aI01
aI00
aI00
aI00
aI00
aI01
aI01
aI00
aI00
aI00
aI00
aI00
aI00
aa(lp25
I00
aI00
aI00
aI01
aI00
aI00
aI00
aI00
aI00
aI01
aI00
aI00
aI00
aI00
aI01
aI00
aa(lp26
I00
aI00
aI00
aI00
aI00
aI01
aI00
aI00
aI00
aI00
aI00
aI01
aI00
aI00
aI00
aI00
aa(lp27
I00
aI00
aI00
aI01
aI00
aI00
aI00
aI01
aI00
aI01
aI00
aI01
aI00
aI00
aI01
aI00
aa(lp28
I00
aI00
aI00
aI00
aI00
aI00
aI00
aI00
aI00
aI00
aI00
aI00
aI00
aI00
aI00
aI00
aa(lp29
I00
aI00
aI00
aI00
aI00
aI00
aI00
aI00
aI00
aI00
aI00
aI00
aI00
aI00
aI00
aI00
aa(lp30
I00
aI00
aI00
aI00
aI00
aI00
aI00
aI00
aI00
aI00
aI00
aI00
aI00
aI00
aI00
aI00
aa(lp31
I00
aI00
aI00
aI00
aI00
aI00
aI00
aI00
aI00
aI01
aI00
aI00
aI00
aI00
aI00
aI00
aa(lp32
I00
aI00
aI00
aI00
aI00
aI00
aI00
aI00
aI00
aI00
aI00
aI00
aI00
aI00
aI00
aI00
aa(lp33
I00
aI00
aI00
aI00
aI00
aI00
aI00
aI00
aI00
aI00
aI00
aI00
aI00
aI00
aI00
aI00
aa(lp34
I00
aI00
aI00
aI00
aI00
aI00
aI01
aI00
aI00
aI00
aI00
aI00
aI00
aI00
aI00
aI00
aa(lp35
I00
aI00
aI00
aI00
aI00
aI00
aI00
aI00
aI00
aI00
aI00
aI00
aI00
aI00
aI00
aI00
aa(lp36
I00
aI00
aI00
aI00
aI00
aI00
aI00
aI00
aI00
aI00
aI00
aI00
aI00
aI00
aI00
aI00
aa(lp37
I00
aI00
aI00
aI00
aI00
aI00
aI00
aI00
aI00
aI00
aI00
aI00
aI00
aI00
aI00
aI00
aa(lp38
I00
aI01
aI00
aI00
aI01
aI00
aI01
aI00
aI01
aI00
aI00
aI00
aI01
aI00
aI00
aI00
aa(lp39
I00
aI00
aI00
aI00
aI01
aI00
aI00
aI00
aI00
aI00
aI01
aI00
aI00
aI00
aI00
aI00
aa(lp40
I00
aI01
aI00
aI00
aI00
aI00
aI01
aI00
aI00
aI00
aI00
aI00
aI01
aI00
aI00
aI00
aa(lp41
I00
aI00
aI00
aI00
aI00
aI00
aI01
aI01
aI00
aI00
aI00
aI00
aI01
aI00
aI00
aI00
aa(lp42
I00
aI00
aI00
aI00
aI00
aI00
aI00
aI00
aI00
aI00
aI00
aI00
aI00
aI00
aI00
aI00
aa(lp43
I00
aI01
aI00
aI01
aI00
aI00
aI00
aI00
aI00
aI00
aI00
aI00
aI00
aI00
aI01
aI00
aa(lp44
I00
aI00
aI00
aI00
aI00
aI00
aI00
aI00
aI00
aI00
aI00
aI00
aI00
aI00
aI00
aI00
aa(lp45
I00
aI00
aI00
aI00
aI00
aI00
aI00
aI01
aI00
aI00
aI00
aI00
aI00
aI01
aI01
aI00
aa(lp46
I00
aI00
aI00
aI00
aI00
aI00
aI00
aI00
aI00
aI00
aI00
aI00
aI00
aI00
aI00
aI00
aa(lp47
I00
aI00
aI00
aI00
aI00
aI00
aI00
aI00
aI00
aI00
aI00
aI00
aI00
aI00
aI00
aI00
aa(lp48
I00
aI00
aI00
aI00
aI00
aI00
aI00
aI00
aI00
aI00
aI00
aI00
aI00
aI00
aI00
aI00
aasS'height'
p49
I16
sbsS'agentPositions'
p50
(lp51
(I00
(I1
I2
tp52
tp53
a(I00
(I30
I13
tp54
tp55
a(I00
(I1
I1
tp56
tp57
a(I00
(I30
I14
tp58
tp59
asg49
I16
sg14
I32
sS'walls'
p60
(igame
Grid
p61
(dp62
g13
I30
sg14
I32
sg15
(lp63
(lp64
I01
aI01
aI01
aI01
aI01
aI01
aI01
aI01
aI01
aI01
aI01
aI01
aI01
aI01
aI01
aI01
aa(lp65
I01
aI00
aI00
aI00
aI00
aI00
aI00
aI00
aI00
aI00
aI00
aI00
aI00
aI00
aI00
aI01
aa(lp66
I01
aI01
aI01
aI01
aI01
aI01
aI01
aI01
aI01
aI01
aI01
aI01
aI01
aI01
aI00
aI01
aa(lp67
I01
aI00
aI00
aI00
aI00
aI00
aI00
aI01
aI00
aI01
aI00
aI00
aI00
aI00
aI00
aI01
aa(lp68
I01
aI01
aI01
aI01
aI01
aI01
aI00
aI00
aI00
aI00
aI00
aI01
aI01
aI01
aI01
aI01
aa(lp69
I01
aI00
aI00
aI00
aI00
aI00
aI00
aI00
aI01
aI01
aI00
aI01
aI00
aI01
aI00
aI01
aa(lp70
I01
aI01
aI00
aI01
aI01
aI00
aI01
aI01
aI01
aI00
aI00
aI00
aI00
aI00
aI00
aI01
aa(lp71
I01
aI00
aI00
aI00
aI01
aI00
aI00
aI01
aI00
aI00
aI01
aI01
aI01
aI00
aI01
aI01
aa(lp72
I01
aI00
aI01
aI00
aI01
aI01
aI00
aI01
aI01
aI00
aI01
aI00
aI00
aI00
aI00
aI01
aa(lp73
I01
aI00
aI01
aI01
aI01
aI00
aI00
aI01
aI01
aI01
aI01
aI00
aI01
aI00
aI01
aI01
aa(lp74
I01
aI00
aI01
aI00
aI01
aI01
aI00
aI00
aI01
aI00
aI01
aI00
aI01
aI00
aI00
aI01
aa(lp75
I01
aI00
aI00
aI00
aI00
aI01
aI00
aI01
aI01
aI00
aI01
aI01
aI01
aI00
aI01
aI01
aa(lp76
I01
aI01
aI00
aI01
aI00
aI01
aI00
aI00
aI00
aI00
aI00
aI00
aI00
aI00
aI00
aI01
aa(lp77
I01
aI00
aI00
aI01
aI00
aI00
aI00
aI00
aI00
aI01
aI01
aI01
aI00
aI01
aI00
aI01
aa(lp78
I01
aI00
aI01
aI01
aI01
aI00
aI01
aI00
aI00
aI00
aI01
aI00
aI00
aI01
aI00
aI01
aa(lp79
I01
aI00
aI00
aI01
aI00
aI00
aI01
aI00
aI00
aI01
aI01
aI00
aI00
aI00
aI00
aI01
aa(lp80
I01
aI00
aI00
aI00
aI00
aI01
aI01
aI00
aI00
aI01
aI00
aI00
aI01
aI00
aI00
aI01
aa(lp81
I01
aI00
aI01
aI00
aI00
aI01
aI00
aI00
aI00
aI01
aI00
aI01
aI01
aI01
aI00
aI01
aa(lp82
I01
aI00
aI01
aI00
aI01
aI01
aI01
aI00
aI00
aI00
aI00
aI00
aI01
aI00
aI00
aI01
aa(lp83
I01
aI00
aI00
aI00
aI00
aI00
aI00
aI00
aI00
aI00
aI01
aI00
aI01
aI00
aI01
aI01
aa(lp84
I01
aI01
aI00
aI01
aI01
aI01
aI00
aI01
aI01
aI00
aI01
aI00
aI00
aI00
aI00
aI01
aa(lp85
I01
aI00
aI00
aI01
aI00
aI01
aI00
aI01
aI00
aI00
aI01
aI01
aI00
aI01
aI00
aI01
aa(lp86
I01
aI01
aI00
aI01
aI00
aI01
aI01
aI01
aI01
aI00
aI00
aI01
aI01
aI01
aI00
aI01
aa(lp87
I01
aI00
aI00
aI00
aI00
aI01
aI00
aI01
aI01
aI00
aI01
aI01
aI00
aI01
aI00
aI01
aa(lp88
I01
aI01
aI00
aI01
aI01
aI01
aI00
aI00
aI01
aI00
aI00
aI01
aI00
aI00
aI00
aI01
aa(lp89
I01
aI00
aI00
aI00
aI00
aI00
aI00
aI01
aI01
aI01
aI00
aI01
aI01
aI00
aI01
aI01
aa(lp90
I01
aI00
aI01
aI00
aI01
aI00
aI01
aI01
aI00
aI00
aI00
aI00
aI00
aI00
aI00
aI01
aa(lp91
I01
aI01
aI01
aI01
aI01
aI00
aI00
aI00
aI00
aI00
aI01
aI01
aI01
aI01
aI01
aI01
aa(lp92
I01
aI00
aI00
aI00
aI00
aI00
aI01
aI00
aI01
aI00
aI00
aI00
aI00
aI00
aI00
aI01
aa(lp93
I01
aI00
aI01
aI01
aI01
aI01
aI01
aI01
aI01
aI01
aI01
aI01
aI01
aI01
aI01
aI01
aa(lp94
I01
aI00
aI00
aI00
aI00
aI00
aI00
aI00
aI00
aI00
aI00
aI00
aI00
aI00
aI00
aI01
aa(lp95
I01
aI01
aI01
aI01
aI01
aI01
aI01
aI01
aI01
aI01
aI01
aI01
aI01
aI01
aI01
aI01
aasg49
I16
sbsS'totalFood'
p96
I40
sS'layoutText'
p97
(lp98
S'%%%%%%%%%%%%%%%%%%%%%%%%%%%%%%%%'
p99
aS'%   %. %.%.%       %     %.%.%4%'
p100
aS'% % %%       %%  %   %%%   %.%2%'
p101
aS'% % %. % %%%    %%%% .%..% % % %'
p102
aS'% % %% % ..% %   %   %%%%% % % %'
p103
aS'% %    %%%%% %%%   %%%.% o % % %'
p104
aS'% %% % ..%.  %.%%%       %   % %'
p105
aS'% %. %%.%%%%        %.%%%%  %% %'
p106
aS'% %%  %%%%.%        %%%%.%% .% %'
p107
aS'% %   %       %%%.%  .%.. % %% %'
p108
aS'% % % o %.%%%   %%% %%%%%    % %'
p109
aS'% % % %%%%%   %   % %.. % %% % %'
p110
aS'% % % %..%. %%%%    %%% % .% % %'
p111
aS'%1%.%   %%%   %  %%       %% % %'
p112
aS'%3%.%.%     %       %.%.% .%   %'
p113
aS'%%%%%%%%%%%%%%%%%%%%%%%%%%%%%%%%'
p114
asbsS'blueTeamName'
p115
S'Blue'
p116
sS'actions'
p117
(lp118
(I0
S'North'
p119
tp120
a(I1
S'South'
p121
tp122
a(I2
g119
tp123
a(I3
g121
tp124
a(I0
g119
tp125
a(I1
g121
tp126
a(I2
g119
tp127
a(I3
g121
tp128
a(I0
g119
tp129
a(I1
g121
tp130
a(I2
g119
tp131
a(I3
g121
tp132
a(I0
g119
tp133
a(I1
g121
tp134
a(I2
g119
tp135
a(I3
g121
tp136
a(I0
g119
tp137
a(I1
g121
tp138
a(I2
g119
tp139
a(I3
g121
tp140
a(I0
g119
tp141
a(I1
g121
tp142
a(I2
g119
tp143
a(I3
g121
tp144
a(I0
g119
tp145
a(I1
g121
tp146
a(I2
g119
tp147
a(I3
g121
tp148
a(I0
g119
tp149
a(I1
g121
tp150
a(I2
g119
tp151
a(I3
g121
tp152
a(I0
g119
tp153
a(I1
g121
tp154
a(I2
g119
tp155
a(I3
g121
tp156
a(I0
g119
tp157
a(I1
g121
tp158
a(I2
g119
tp159
a(I3
g121
tp160
a(I0
g119
tp161
a(I1
g121
tp162
a(I2
g119
tp163
a(I3
g121
tp164
a(I0
g119
tp165
a(I1
g121
tp166
a(I2
g119
tp167
a(I3
g121
tp168
a(I0
S'East'
p169
tp170
a(I1
S'West'
p171
tp172
a(I2
g119
tp173
a(I3
g121
tp174
a(I0
g169
tp175
a(I1
g171
tp176
a(I2
g169
tp177
a(I3
g171
tp178
a(I0
g121
tp179
a(I1
g119
tp180
a(I2
g169
tp181
a(I3
g171
tp182
a(I0
g121
tp183
a(I1
g119
tp184
a(I2
g121
tp185
a(I3
g119
tp186
a(I0
g121
tp187
a(I1
g119
tp188
a(I2
g121
tp189
a(I3
g119
tp190
a(I0
g121
tp191
a(I1
g119
tp192
a(I2
g121
tp193
a(I3
g119
tp194
a(I0
g169
tp195
a(I1
g171
tp196
a(I2
g121
tp197
a(I3
g119
tp198
a(I0
g121
tp199
a(I1
g119
tp200
a(I2
g169
tp201
a(I3
g171
tp202
a(I0
g121
tp203
a(I1
g119
tp204
a(I2
g121
tp205
a(I3
g119
tp206
a(I0
g171
tp207
a(I1
g119
tp208
a(I2
g121
tp209
a(I3
g119
tp210
a(I0
S'Stop'
p211
tp212
a(I1
g171
tp213
a(I2
g121
tp214
a(I3
g119
tp215
a(I0
g211
tp216
a(I1
g119
tp217
a(I2
g121
tp218
a(I3
g171
tp219
a(I0
g211
tp220
a(I1
g119
tp221
a(I2
g169
tp222
a(I3
g119
tp223
a(I0
g211
tp224
a(I1
g171
tp225
a(I2
g121
tp226
a(I3
g119
tp227
a(I0
g211
tp228
a(I1
g171
tp229
a(I2
g169
tp230
a(I3
g119
tp231
a(I0
g211
tp232
a(I1
g121
tp233
a(I2
g169
tp234
a(I3
g119
tp235
a(I0
g211
tp236
a(I1
g171
tp237
a(I2
g119
tp238
a(I3
g119
tp239
a(I0
g211
tp240
a(I1
g171
tp241
a(I2
g169
tp242
a(I3
g171
tp243
a(I0
g211
tp244
a(I1
g171
tp245
a(I2
g169
tp246
a(I3
g171
tp247
a(I0
g211
tp248
a(I1
g171
tp249
a(I2
g169
tp250
a(I3
g121
tp251
a(I0
g211
tp252
a(I1
g171
tp253
a(I2
g169
tp254
a(I3
g171
tp255
a(I0
g211
tp256
a(I1
g171
tp257
a(I2
g169
tp258
a(I3
g169
tp259
a(I0
g211
tp260
a(I1
g121
tp261
a(I2
g169
tp262
a(I3
g119
tp263
a(I0
g211
tp264
a(I1
g171
tp265
a(I2
g119
tp266
a(I3
g169
tp267
a(I0
g211
tp268
a(I1
g171
tp269
a(I2
g169
tp270
a(I3
g169
tp271
a(I0
g211
tp272
a(I1
g171
tp273
a(I2
g169
tp274
a(I3
g119
tp275
a(I0
g169
tp276
a(I1
g171
tp277
a(I2
g119
tp278
a(I3
g121
tp279
a(I0
g121
tp280
a(I1
g119
tp281
a(I2
g171
tp282
a(I3
g171
tp283
a(I0
g121
tp284
a(I1
g211
tp285
a(I2
g211
tp286
a(I3
g171
tp287
a(I0
g169
tp288
a(I1
g211
tp289
a(I2
g211
tp290
a(I3
g119
tp291
a(I0
g121
tp292
a(I1
g211
tp293
a(I2
g211
tp294
a(I3
g171
tp295
a(I0
g169
tp296
a(I1
g211
tp297
a(I2
g211
tp298
a(I3
g171
tp299
a(I0
g169
tp300
a(I1
g211
tp301
a(I2
g211
tp302
a(I3
g171
tp303
a(I0
g119
tp304
a(I1
g211
tp305
a(I2
g211
tp306
a(I3
g171
tp307
a(I0
g169
tp308
a(I1
g211
tp309
a(I2
g211
tp310
a(I3
g121
tp311
a(I0
g169
tp312
a(I1
g211
tp313
a(I2
g211
tp314
a(I3
g121
tp315
a(I0
g169
tp316
a(I1
g211
tp317
a(I2
g211
tp318
a(I3
g121
tp319
a(I0
g169
tp320
a(I1
g211
tp321
a(I2
g211
tp322
a(I3
g171
tp323
a(I0
g169
tp324
a(I1
g211
tp325
a(I2
g211
tp326
a(I3
g171
tp327
a(I0
g169
tp328
a(I1
g211
tp329
a(I2
g211
tp330
a(I3
g121
tp331
a(I0
g119
tp332
a(I1
g211
tp333
a(I2
g211
tp334
a(I3
g121
tp335
a(I0
g119
tp336
a(I1
g211
tp337
a(I2
g211
tp338
a(I3
g169
tp339
a(I0
g169
tp340
a(I1
g211
tp341
a(I2
g211
tp342
a(I3
g169
tp343
a(I0
g119
tp344
a(I1
g121
tp345
a(I2
g121
tp346
a(I3
g169
tp347
a(I0
g121
tp348
a(I1
g121
tp349
a(I2
g169
tp350
a(I3
g121
tp351
a(I0
g171
tp352
a(I1
g121
tp353
a(I2
g169
tp354
a(I3
g119
tp355
a(I0
g211
tp356
a(I1
g121
tp357
a(I2
g169
tp358
a(I3
g171
tp359
a(I0
g211
tp360
a(I1
g121
tp361
a(I2
g121
tp362
a(I3
g171
tp363
a(I0
g211
tp364
a(I1
g121
tp365
a(I2
g211
tp366
a(I3
g171
tp367
a(I0
g211
tp368
a(I1
g121
tp369
a(I2
g211
tp370
a(I3
g121
tp371
a(I0
g211
tp372
a(I1
g121
tp373
a(I2
g211
tp374
a(I3
g171
tp375
a(I0
g211
tp376
a(I1
g121
tp377
a(I2
g211
tp378
a(I3
g121
tp379
a(I0
g211
tp380
a(I1
g121
tp381
a(I2
g211
tp382
a(I3
g121
tp383
a(I0
g211
tp384
a(I1
g121
tp385
a(I2
g119
tp386
a(I3
g119
tp387
a(I0
g211
tp388
a(I1
g121
tp389
a(I2
g119
tp390
a(I3
g119
tp391
a(I0
g211
tp392
a(I1
g171
tp393
a(I2
g119
tp394
a(I3
g169
tp395
a(I0
g211
tp396
a(I1
g171
tp397
a(I2
g119
tp398
a(I3
g121
tp399
a(I0
g211
tp400
a(I1
g119
tp401
a(I2
g119
tp402
a(I3
g171
tp403
a(I0
g211
tp404
a(I1
g119
tp405
a(I2
g119
tp406
a(I3
g119
tp407
a(I0
g211
tp408
a(I1
g119
tp409
a(I2
g119
tp410
a(I3
g169
tp411
a(I0
g211
tp412
a(I1
g119
tp413
a(I2
g119
tp414
a(I3
g119
tp415
a(I0
g211
tp416
a(I1
g171
tp417
a(I2
g119
tp418
a(I3
g169
tp419
a(I0
g211
tp420
a(I1
g119
tp421
a(I2
g119
tp422
a(I3
g121
tp423
a(I0
g211
tp424
a(I1
g119
tp425
a(I2
g119
tp426
a(I3
g121
tp427
a(I0
g211
tp428
a(I1
g119
tp429
a(I2
g119
tp430
a(I3
g171
tp431
a(I0
g211
tp432
a(I1
g171
tp433
a(I2
g119
tp434
a(I3
g119
tp435
a(I0
g211
tp436
a(I1
g119
tp437
a(I2
g169
tp438
a(I3
g119
tp439
a(I0
g211
tp440
a(I1
g119
tp441
a(I2
g169
tp442
a(I3
g119
tp443
a(I0
g211
tp444
a(I1
g171
tp445
a(I2
g121
tp446
a(I3
g171
tp447
a(I0
g211
tp448
a(I1
g171
tp449
a(I2
g121
tp450
a(I3
g171
tp451
a(I0
g211
tp452
a(I1
g121
tp453
a(I2
g121
tp454
a(I3
g119
tp455
a(I0
g211
tp456
a(I1
g171
tp457
a(I2
g121
tp458
a(I3
g121
tp459
a(I0
g211
tp460
a(I1
g171
tp461
a(I2
g169
tp462
a(I3
g169
tp463
a(I0
g211
tp464
a(I1
g171
tp465
a(I2
g121
tp466
a(I3
g169
tp467
a(I0
g211
tp468
a(I1
g171
tp469
a(I2
g121
tp470
a(I3
g119
tp471
a(I0
g211
tp472
a(I1
g171
tp473
a(I2
g121
tp474
a(I3
g169
tp475
a(I0
g211
tp476
a(I1
g121
tp477
a(I2
g121
tp478
a(I3
g169
tp479
a(I0
g211
tp480
a(I1
g171
tp481
a(I2
g169
tp482
a(I3
g119
tp483
a(I0
g211
tp484
a(I1
g171
tp485
a(I2
g121
tp486
a(I3
g119
tp487
a(I0
g211
tp488
a(I1
g171
tp489
a(I2
g169
tp490
a(I3
g119
tp491
a(I0
g211
tp492
a(I1
g171
tp493
a(I2
g169
tp494
a(I3
g169
tp495
a(I0
g169
tp496
a(I1
g211
tp497
a(I2
g119
tp498
a(I3
g169
tp499
a(I0
g169
tp500
a(I1
g121
tp501
a(I2
g169
tp502
a(I3
g169
tp503
a(I0
g171
tp504
a(I1
g121
tp505
a(I2
g169
tp506
a(I3
g169
tp507
a(I0
g171
tp508
a(I1
g121
tp509
a(I2
g169
tp510
a(I3
g121
tp511
a(I0
g211
tp512
a(I1
g121
tp513
a(I2
g169
tp514
a(I3
g169
tp515
a(I0
g211
tp516
a(I1
g121
tp517
a(I2
g169
tp518
a(I3
g169
tp519
a(I0
g211
tp520
a(I1
g121
tp521
a(I2
g169
tp522
a(I3
g119
tp523
a(I0
g211
tp524
a(I1
g121
tp525
a(I2
g119
tp526
a(I3
g121
tp527
a(I0
g211
tp528
a(I1
g121
tp529
a(I2
g169
tp530
a(I3
g171
tp531
a(I0
g211
tp532
a(I1
g121
tp533
a(I2
g169
tp534
a(I3
g171
tp535
a(I0
g211
tp536
a(I1
g121
tp537
a(I2
g169
tp538
a(I3
g119
tp539
a(I0
g211
tp540
a(I1
g121
tp541
a(I2
g169
tp542
a(I3
g171
tp543
a(I0
g211
tp544
a(I1
g121
tp545
a(I2
g169
tp546
a(I3
g171
tp547
a(I0
g211
tp548
a(I1
g171
tp549
a(I2
g169
tp550
a(I3
g171
tp551
a(I0
g211
tp552
a(I1
g171
tp553
a(I2
g121
tp554
a(I3
g171
tp555
a(I0
g211
tp556
a(I1
g119
tp557
a(I2
g169
tp558
a(I3
g121
tp559
a(I0
g211
tp560
a(I1
g119
tp561
a(I2
g169
tp562
a(I3
g171
tp563
a(I0
g211
tp564
a(I1
g119
tp565
a(I2
g211
tp566
a(I3
g171
tp567
a(I0
g211
tp568
a(I1
g119
tp569
a(I2
g211
tp570
a(I3
g119
tp571
a(I0
g211
tp572
a(I1
g171
tp573
a(I2
g211
tp574
a(I3
g171
tp575
a(I0
g211
tp576
a(I1
g119
tp577
a(I2
g211
tp578
a(I3
g171
tp579
a(I0
g211
tp580
a(I1
g119
tp581
a(I2
g211
tp582
a(I3
g121
tp583
a(I0
g211
tp584
a(I1
g119
tp585
a(I2
g211
tp586
a(I3
g119
tp587
a(I0
g211
tp588
a(I1
g171
tp589
a(I2
g211
tp590
a(I3
g169
tp591
a(I0
g211
tp592
a(I1
g119
tp593
a(I2
g211
tp594
a(I3
g169
tp595
a(I0
g211
tp596
a(I1
g119
tp597
a(I2
g211
tp598
a(I3
g121
tp599
a(I0
g211
tp600
a(I1
g171
tp601
a(I2
g211
tp602
a(I3
g169
tp603
a(I0
g211
tp604
a(I1
g171
tp605
a(I2
g211
tp606
a(I3
g169
tp607
a(I0
g211
tp608
a(I1
g121
tp609
a(I2
g211
tp610
a(I3
g121
tp611
a(I0
g211
tp612
a(I1
g171
tp613
a(I2
g211
tp614
a(I3
g121
tp615
a(I0
g211
tp616
a(I1
g171
tp617
a(I2
g211
tp618
a(I3
g171
tp619
a(I0
g211
tp620
a(I1
g171
tp621
a(I2
g211
tp622
a(I3
g171
tp623
a(I0
g211
tp624
a(I1
g171
tp625
a(I2
g211
tp626
a(I3
g121
tp627
a(I0
g211
tp628
a(I1
g171
tp629
a(I2
g211
tp630
a(I3
g121
tp631
a(I0
g211
tp632
a(I1
g171
tp633
a(I2
g211
tp634
a(I3
g121
tp635
a(I0
g211
tp636
a(I1
g121
tp637
a(I2
g211
tp638
a(I3
g121
tp639
a(I0
g211
tp640
a(I1
g171
tp641
a(I2
g211
tp642
a(I3
g169
tp643
a(I0
g211
tp644
a(I1
g171
tp645
a(I2
g211
tp646
a(I3
g121
tp647
a(I0
g211
tp648
a(I1
g171
tp649
a(I2
g211
tp650
a(I3
g169
tp651
a(I0
g169
tp652
a(I1
g211
tp653
a(I2
g211
tp654
a(I3
g169
tp655
a(I0
g169
tp656
a(I1
g121
tp657
a(I2
g119
tp658
a(I3
g171
tp659
a(I0
g171
tp660
a(I1
g121
tp661
a(I2
g119
tp662
a(I3
g171
tp663
a(I0
g171
tp664
a(I1
g121
tp665
a(I2
g119
tp666
a(I3
g119
tp667
a(I0
g211
tp668
a(I1
g121
tp669
a(I2
g119
tp670
a(I3
g171
tp671
a(I0
g211
tp672
a(I1
g121
tp673
a(I2
g119
tp674
a(I3
g171
tp675
a(I0
g211
tp676
a(I1
g121
tp677
a(I2
g119
tp678
a(I3
g171
tp679
a(I0
g211
tp680
a(I1
g121
tp681
a(I2
g119
tp682
a(I3
g119
tp683
a(I0
g211
tp684
a(I1
g121
tp685
a(I2
g119
tp686
a(I3
g169
tp687
a(I0
g211
tp688
a(I1
g121
tp689
a(I2
g119
tp690
a(I3
g121
tp691
a(I0
g211
tp692
a(I1
g121
tp693
a(I2
g119
tp694
a(I3
g121
tp695
a(I0
g211
tp696
a(I1
g121
tp697
a(I2
g119
tp698
a(I3
g119
tp699
a(I0
g211
tp700
a(I1
g121
tp701
a(I2
g119
tp702
a(I3
g119
tp703
a(I0
g211
tp704
a(I1
g171
tp705
a(I2
g119
tp706
a(I3
g169
tp707
a(I0
g211
tp708
a(I1
g171
tp709
a(I2
g169
tp710
a(I3
g119
tp711
a(I0
g211
tp712
a(I1
g119
tp713
a(I2
g169
tp714
a(I3
g119
tp715
a(I0
g211
tp716
a(I1
g119
tp717
a(I2
g121
tp718
a(I3
g171
tp719
a(I0
g211
tp720
a(I1
g119
tp721
a(I2
g121
tp722
a(I3
g171
tp723
a(I0
g211
tp724
a(I1
g119
tp725
a(I2
g121
tp726
a(I3
g119
tp727
a(I0
g211
tp728
a(I1
g171
tp729
a(I2
g121
tp730
a(I3
g121
tp731
a(I0
g211
tp732
a(I1
g119
tp733
a(I2
g169
tp734
a(I3
g169
tp735
a(I0
g211
tp736
a(I1
g119
tp737
a(I2
g169
tp738
a(I3
g169
tp739
a(I0
g211
tp740
a(I1
g119
tp741
a(I2
g169
tp742
a(I3
g119
tp743
a(I0
g211
tp744
a(I1
g119
tp745
a(I2
g119
tp746
a(I3
g169
tp747
a(I0
g211
tp748
a(I1
g171
tp749
a(I2
g119
tp750
a(I3
g169
tp751
a(I0
g211
tp752
a(I1
g119
tp753
a(I2
g119
tp754
a(I3
g119
tp755
a(I0
g211
tp756
a(I1
g171
tp757
a(I2
g169
tp758
a(I3
g169
tp759
a(I0
g211
tp760
a(I1
g171
tp761
a(I2
g169
tp762
a(I3
g171
tp763
a(I0
g211
tp764
a(I1
g121
tp765
a(I2
g169
tp766
a(I3
g121
tp767
a(I0
g211
tp768
a(I1
g171
tp769
a(I2
g169
tp770
a(I3
g171
tp771
a(I0
g211
tp772
a(I1
g171
tp773
a(I2
g169
tp774
a(I3
g171
tp775
a(I0
g211
tp776
a(I1
g171
tp777
a(I2
g169
tp778
a(I3
g121
tp779
a(I0
g211
tp780
a(I1
g171
tp781
a(I2
g119
tp782
a(I3
g121
tp783
a(I0
g211
tp784
a(I1
g171
tp785
a(I2
g169
tp786
a(I3
g169
tp787
a(I0
g211
tp788
a(I1
g121
tp789
a(I2
g169
tp790
a(I3
g121
tp791
a(I0
g211
tp792
a(I1
g171
tp793
a(I2
g169
tp794
a(I3
g121
tp795
a(I0
g211
tp796
a(I1
g171
tp797
a(I2
g169
tp798
a(I3
g171
tp799
a(I0
g211
tp800
a(I1
g171
tp801
a(I2
g169
tp802
a(I3
g171
tp803
a(I0
g211
tp804
a(I1
g171
tp805
a(I2
g169
tp806
a(I3
g119
tp807
a(I0
g169
tp808
a(I1
g211
tp809
a(I2
g121
tp810
a(I3
g169
tp811
a(I0
g169
tp812
a(I1
g121
tp813
a(I2
g169
tp814
a(I3
g121
tp815
a(I0
g171
tp816
a(I1
g121
tp817
a(I2
g169
tp818
a(I3
g171
tp819
a(I0
g171
tp820
a(I1
g121
tp821
a(I2
g121
tp822
a(I3
g121
tp823
a(I0
g211
tp824
a(I1
g121
tp825
a(I2
g169
tp826
a(I3
g119
tp827
a(I0
g211
tp828
a(I1
g121
tp829
a(I2
g211
tp830
a(I3
g171
tp831
a(I0
g211
tp832
a(I1
g121
tp833
a(I2
g211
tp834
a(I3
g119
tp835
a(I0
g211
tp836
a(I1
g121
tp837
a(I2
g211
tp838
a(I3
g169
tp839
a(I0
g211
tp840
a(I1
g121
tp841
a(I2
g211
tp842
a(I3
g169
tp843
a(I0
g211
tp844
a(I1
g121
tp845
a(I2
g211
tp846
a(I3
g119
tp847
a(I0
g211
tp848
a(I1
g121
tp849
a(I2
g211
tp850
a(I3
g169
tp851
a(I0
g211
tp852
a(I1
g121
tp853
a(I2
g211
tp854
a(I3
g171
tp855
a(I0
g211
tp856
a(I1
g121
tp857
a(I2
g211
tp858
a(I3
g121
tp859
a(I0
g211
tp860
a(I1
g171
tp861
a(I2
g211
tp862
a(I3
g169
tp863
a(I0
g211
tp864
a(I1
g171
tp865
a(I2
g211
tp866
a(I3
g121
tp867
a(I0
g211
tp868
a(I1
g119
tp869
a(I2
g211
tp870
a(I3
g171
tp871
a(I0
g211
tp872
a(I1
g119
tp873
a(I2
g211
tp874
a(I3
g171
tp875
a(I0
g211
tp876
a(I1
g119
tp877
a(I2
g211
tp878
a(I3
g119
tp879
a(I0
g211
tp880
a(I1
g119
tp881
a(I2
g211
tp882
a(I3
g169
tp883
a(I0
g211
tp884
a(I1
g171
tp885
a(I2
g211
tp886
a(I3
g119
tp887
a(I0
g211
tp888
a(I1
g119
tp889
a(I2
g211
tp890
a(I3
g119
tp891
a(I0
g211
tp892
a(I1
g119
tp893
a(I2
g211
tp894
a(I3
g119
tp895
a(I0
g211
tp896
a(I1
g119
tp897
a(I2
g211
tp898
a(I3
g169
tp899
a(I0
g211
tp900
a(I1
g171
tp901
a(I2
g211
tp902
a(I3
g169
tp903
a(I0
g211
tp904
a(I1
g119
tp905
a(I2
g211
tp906
a(I3
g119
tp907
a(I0
g211
tp908
a(I1
g119
tp909
a(I2
g211
tp910
a(I3
g169
tp911
a(I0
g211
tp912
a(I1
g171
tp913
a(I2
g119
tp914
a(I3
g171
tp915
a(I0
g211
tp916
a(I1
g171
tp917
a(I2
g119
tp918
a(I3
g121
tp919
a(I0
g211
tp920
a(I1
g121
tp921
a(I2
g119
tp922
a(I3
g171
tp923
a(I0
g211
tp924
a(I1
g171
tp925
a(I2
g119
tp926
a(I3
g171
tp927
a(I0
g211
tp928
a(I1
g171
tp929
a(I2
g119
tp930
a(I3
g121
tp931
a(I0
g211
tp932
a(I1
g171
tp933
a(I2
g119
tp934
a(I3
g121
tp935
a(I0
g211
tp936
a(I1
g171
tp937
a(I2
g119
tp938
a(I3
g121
tp939
a(I0
g211
tp940
a(I1
g171
tp941
a(I2
g119
tp942
a(I3
g169
tp943
a(I0
g211
tp944
a(I1
g121
tp945
a(I2
g119
tp946
a(I3
g119
tp947
a(I0
g211
tp948
a(I1
g171
tp949
a(I2
g119
tp950
a(I3
g169
tp951
a(I0
g211
tp952
a(I1
g171
tp953
a(I2
g119
tp954
a(I3
g169
tp955
a(I0
g211
tp956
a(I1
g171
tp957
a(I2
g119
tp958
a(I3
g121
tp959
a(I0
g211
tp960
a(I1
g171
tp961
a(I2
g119
tp962
a(I3
g119
tp963
a(I0
g169
tp964
a(I1
g211
tp965
a(I2
g169
tp966
a(I3
g171
tp967
a(I0
g169
tp968
a(I1
g121
tp969
a(I2
g169
tp970
a(I3
g171
tp971
a(I0
g171
tp972
a(I1
g121
tp973
a(I2
g121
tp974
a(I3
g171
tp975
a(I0
g171
tp976
a(I1
g121
tp977
a(I2
g121
tp978
a(I3
g119
tp979
a(I0
g211
tp980
a(I1
g121
tp981
a(I2
g121
tp982
a(I3
g171
tp983
a(I0
g211
tp984
a(I1
g121
tp985
a(I2
g121
tp986
a(I3
g171
tp987
a(I0
g211
tp988
a(I1
g121
tp989
a(I2
g169
tp990
a(I3
g119
tp991
a(I0
g211
tp992
a(I1
g121
tp993
a(I2
g169
tp994
a(I3
g121
tp995
a(I0
g211
tp996
a(I1
g121
tp997
a(I2
g169
tp998
a(I3
g169
tp999
a(I0
g211
tp1000
a(I1
g121
tp1001
a(I2
g119
tp1002
a(I3
g169
tp1003
a(I0
g211
tp1004
a(I1
g121
tp1005
a(I2
g119
tp1006
a(I3
g121
tp1007
a(I0
g211
tp1008
a(I1
g121
tp1009
a(I2
g119
tp1010
a(I3
g121
tp1011
a(I0
g211
tp1012
a(I1
g121
tp1013
a(I2
g169
tp1014
a(I3
g169
tp1015
a(I0
g211
tp1016
a(I1
g171
tp1017
a(I2
g169
tp1018
a(I3
g119
tp1019
a(I0
g211
tp1020
a(I1
g171
tp1021
a(I2
g169
tp1022
a(I3
g169
tp1023
a(I0
g211
tp1024
a(I1
g119
tp1025
a(I2
g169
tp1026
a(I3
g169
tp1027
a(I0
g211
tp1028
a(I1
g119
tp1029
a(I2
g169
tp1030
a(I3
g121
tp1031
a(I0
g211
tp1032
a(I1
g119
tp1033
a(I2
g169
tp1034
a(I3
g119
tp1035
a(I0
g211
tp1036
a(I1
g119
tp1037
a(I2
g119
tp1038
a(I3
g171
tp1039
a(I0
g211
tp1040
a(I1
g171
tp1041
a(I2
g169
tp1042
a(I3
g171
tp1043
a(I0
g211
tp1044
a(I1
g119
tp1045
a(I2
g169
tp1046
a(I3
g171
tp1047
a(I0
g211
tp1048
a(I1
g119
tp1049
a(I2
g169
tp1050
a(I3
g119
tp1051
a(I0
g211
tp1052
a(I1
g119
tp1053
a(I2
g169
tp1054
a(I3
g119
tp1055
a(I0
g211
tp1056
a(I1
g171
tp1057
a(I2
g169
tp1058
a(I3
g169
tp1059
a(I0
g211
tp1060
a(I1
g119
tp1061
a(I2
g169
tp1062
a(I3
g169
tp1063
a(I0
g211
tp1064
a(I1
g119
tp1065
a(I2
g121
tp1066
a(I3
g119
tp1067
a(I0
g211
tp1068
a(I1
g171
tp1069
a(I2
g169
tp1070
a(I3
g119
tp1071
a(I0
g211
tp1072
a(I1
g171
tp1073
a(I2
g211
tp1074
a(I3
g171
tp1075
a(I0
g211
tp1076
a(I1
g121
tp1077
a(I2
g119
tp1078
a(I3
g171
tp1079
a(I0
g211
tp1080
a(I1
g171
tp1081
a(I2
g119
tp1082
a(I3
g119
tp1083
a(I0
g211
tp1084
a(I1
g171
tp1085
a(I2
g119
tp1086
a(I3
g171
tp1087
a(I0
g211
tp1088
a(I1
g171
tp1089
a(I2
g119
tp1090
a(I3
g171
tp1091
a(I0
g211
tp1092
a(I1
g171
tp1093
a(I2
g119
tp1094
a(I3
g121
tp1095
a(I0
g211
tp1096
a(I1
g171
tp1097
a(I2
g119
tp1098
a(I3
g119
tp1099
a(I0
g211
tp1100
a(I1
g171
tp1101
a(I2
g119
tp1102
a(I3
g169
tp1103
a(I0
g211
tp1104
a(I1
g121
tp1105
a(I2
g119
tp1106
a(I3
g169
tp1107
a(I0
g211
tp1108
a(I1
g171
tp1109
a(I2
g119
tp1110
a(I3
g121
tp1111
a(I0
g211
tp1112
a(I1
g171
tp1113
a(I2
g119
tp1114
a(I3
g169
tp1115
a(I0
g211
tp1116
a(I1
g171
tp1117
a(I2
g119
tp1118
a(I3
g169
tp1119
a(I0
g169
tp1120
a(I1
g211
tp1121
a(I2
g119
tp1122
a(I3
g121
tp1123
a(I0
g169
tp1124
a(I1
g121
tp1125
a(I2
g119
tp1126
a(I3
g121
tp1127
a(I0
g171
tp1128
a(I1
g121
tp1129
a(I2
g169
tp1130
a(I3
g171
tp1131
a(I0
g171
tp1132
a(I1
g121
tp1133
a(I2
g169
tp1134
a(I3
g171
tp1135
a(I0
g211
tp1136
a(I1
g121
tp1137
a(I2
g121
tp1138
a(I3
g121
tp1139
a(I0
g211
tp1140
a(I1
g121
tp1141
a(I2
g121
tp1142
a(I3
g171
tp1143
a(I0
g211
tp1144
a(I1
g121
tp1145
a(I2
g121
tp1146
a(I3
g171
tp1147
a(I0
g211
tp1148
a(I1
g121
tp1149
a(I2
g121
tp1150
a(I3
g119
tp1151
a(I0
g211
tp1152
a(I1
g121
tp1153
a(I2
g169
tp1154
a(I3
g121
tp1155
a(I0
g211
tp1156
a(I1
g121
tp1157
a(I2
g169
tp1158
a(I3
g169
tp1159
a(I0
g211
tp1160
a(I1
g121
tp1161
a(I2
g169
tp1162
a(I3
g169
tp1163
a(I0
g211
tp1164
a(I1
g121
tp1165
a(I2
g119
tp1166
a(I3
g119
tp1167
a(I0
g211
tp1168
a(I1
g121
tp1169
a(I2
g119
tp1170
a(I3
g169
tp1171
a(I0
g211
tp1172
a(I1
g171
tp1173
a(I2
g119
tp1174
a(I3
g169
tp1175
a(I0
g211
tp1176
a(I1
g171
tp1177
a(I2
g169
tp1178
a(I3
g119
tp1179
a(I0
g211
tp1180
a(I1
g119
tp1181
a(I2
g169
tp1182
a(I3
g169
tp1183
a(I0
g211
tp1184
a(I1
g119
tp1185
a(I2
g169
tp1186
a(I3
g171
tp1187
a(I0
g211
tp1188
a(I1
g119
tp1189
a(I2
g169
tp1190
a(I3
g119
tp1191
a(I0
g211
tp1192
a(I1
g119
tp1193
a(I2
g169
tp1194
a(I3
g171
tp1195
a(I0
g211
tp1196
a(I1
g171
tp1197
a(I2
g169
tp1198
a(I3
g171
tp1199
a(I0
g211
tp1200
a(I1
g119
tp1201
a(I2
g119
tp1202
a(I3
g119
tp1203
a(I0
g211
tp1204
a(I1
g119
tp1205
a(I2
g169
tp1206
a(I3
g171
tp1207
a(I0
g211
tp1208
a(I1
g119
tp1209
a(I2
g169
tp1210
a(I3
g171
tp1211
a(I0
g211
tp1212
a(I1
g119
tp1213
a(I2
g169
tp1214
a(I3
g121
tp1215
a(I0
g211
tp1216
a(I1
g171
tp1217
a(I2
g169
tp1218
a(I3
g119
tp1219
a(I0
g211
tp1220
a(I1
g119
tp1221
a(I2
g119
tp1222
a(I3
g169
tp1223
a(I0
g211
tp1224
a(I1
g171
tp1225
a(I2
g119
tp1226
a(I3
g169
tp1227
a(I0
g211
tp1228
a(I1
g171
tp1229
a(I2
g119
tp1230
a(I3
g121
tp1231
a(I0
g211
tp1232
a(I1
g121
tp1233
a(I2
g119
tp1234
a(I3
g169
tp1235
a(I0
g211
tp1236
a(I1
g171
tp1237
a(I2
g119
tp1238
a(I3
g169
tp1239
a(I0
g211
tp1240
a(I1
g171
tp1241
a(I2
g119
tp1242
a(I3
g119
tp1243
a(I0
g211
tp1244
a(I1
g171
tp1245
a(I2
g119
tp1246
a(I3
g169
tp1247
a(I0
g211
tp1248
a(I1
g171
tp1249
a(I2
g119
tp1250
a(I3
g169
tp1251
a(I0
g211
tp1252
a(I1
g171
tp1253
a(I2
g119
tp1254
a(I3
g169
tp1255
a(I0
g211
tp1256
a(I1
g171
tp1257
a(I2
g119
tp1258
a(I3
g169
tp1259
a(I0
g211
tp1260
a(I1
g121
tp1261
a(I2
g119
tp1262
a(I3
g121
tp1263
a(I0
g211
tp1264
a(I1
g171
tp1265
a(I2
g119
tp1266
a(I3
g121
tp1267
a(I0
g211
tp1268
a(I1
g171
tp1269
a(I2
g119
tp1270
a(I3
g171
tp1271
a(I0
g211
tp1272
a(I1
g171
tp1273
a(I2
g169
tp1274
a(I3
g169
tp1275
a(I0
g169
tp1276
a(I1
g211
tp1277
a(I2
g169
tp1278
a(I3
g119
tp1279
a(I0
g169
tp1280
a(I1
g121
tp1281
a(I2
g121
tp1282
a(I3
g119
tp1283
a(I0
g171
tp1284
a(I1
g121
tp1285
a(I2
g121
tp1286
a(I3
g171
tp1287
a(I0
g171
tp1288
a(I1
g121
tp1289
a(I2
g121
tp1290
a(I3
g171
tp1291
a(I0
g211
tp1292
a(I1
g121
tp1293
a(I2
g121
tp1294
a(I3
g171
tp1295
a(I0
g211
tp1296
a(I1
g121
tp1297
a(I2
g169
tp1298
a(I3
g171
tp1299
a(I0
g211
tp1300
a(I1
g121
tp1301
a(I2
g169
tp1302
a(I3
g121
tp1303
a(I0
g211
tp1304
a(I1
g121
tp1305
a(I2
g169
tp1306
a(I3
g171
tp1307
a(I0
g211
tp1308
a(I1
g121
tp1309
a(I2
g119
tp1310
a(I3
g171
tp1311
a(I0
g211
tp1312
a(I1
g121
tp1313
a(I2
g119
tp1314
a(I3
g119
tp1315
a(I0
g211
tp1316
a(I1
g121
tp1317
a(I2
g119
tp1318
a(I3
g171
tp1319
a(I0
g211
tp1320
a(I1
g121
tp1321
a(I2
g169
tp1322
a(I3
g171
tp1323
asS'length'
p1324
I1200
sS'agents'
p1325
(lp1326
(igame
Agent
p1327
(dp1328
S'index'
p1329
I0
sba(igame
Agent
p1330
(dp1331
g1329
I0
sba(igame
Agent
p1332
(dp1333
g1329
I0
sba(igame
Agent
p1334
(dp1335
g1329
I0
sbasS'redTeamName'
p1336
S'Red'
p1337
s.